ARM GAS  /var/folders/7g/gx2z5z456bq_r9kbxlcydkzm0000gn/T//cczU858k.s 			page 1


   1              		.cpu cortex-m3
   2              		.arch armv7-m
   3              		.fpu softvfp
   4              		.eabi_attribute 20, 1
   5              		.eabi_attribute 21, 1
   6              		.eabi_attribute 23, 3
   7              		.eabi_attribute 24, 1
   8              		.eabi_attribute 25, 1
   9              		.eabi_attribute 26, 1
  10              		.eabi_attribute 30, 6
  11              		.eabi_attribute 34, 1
  12              		.eabi_attribute 18, 4
  13              		.file	"main.c"
  14              		.text
  15              	.Ltext0:
  16              		.cfi_sections	.debug_frame
  17              		.file 1 "src/main.c"
  18              		.global	initialTime
  19              		.bss
  20              		.align	2
  21              		.type	initialTime, %object
  22              		.size	initialTime, 4
  23              	initialTime:
  24 0000 00000000 		.space	4
  25              		.global	left
  26              		.align	2
  27              		.type	left, %object
  28              		.size	left, 16
  29              	left:
  30 0004 00000000 		.space	16
  30      00000000 
  30      00000000 
  30      00000000 
  31              		.global	right
  32              		.align	2
  33              		.type	right, %object
  34              		.size	right, 16
  35              	right:
  36 0014 00000000 		.space	16
  36      00000000 
  36      00000000 
  36      00000000 
  37              		.text
  38              		.align	1
  39              		.global	init_setup
  40              		.syntax unified
  41              		.thumb
  42              		.thumb_func
  43              		.type	init_setup, %function
  44              	init_setup:
  45              	.LFB66:
   1:src/main.c    **** /****************************************************************************\
   2:src/main.c    ****  File:          main.c
   3:src/main.c    ****  Date:
   4:src/main.c    **** 
   5:src/main.c    ****  Description:
   6:src/main.c    ****   Main program file for the STM32F103C8T6 "Blue Pill" development board.
ARM GAS  /var/folders/7g/gx2z5z456bq_r9kbxlcydkzm0000gn/T//cczU858k.s 			page 2


   7:src/main.c    ****   This file contains the main program loop and initialization functions.
   8:src/main.c    **** 
   9:src/main.c    **** 
  10:src/main.c    **** 
  11:src/main.c    ****  Known bugs/missing features:
  12:src/main.c    **** 
  13:src/main.c    **** \****************************************************************************/
  14:src/main.c    **** #include "main.h"
  15:src/main.c    **** #include <stdint.h>
  16:src/main.c    **** #include <stdio.h>
  17:src/main.c    **** #include "stm32f1xx.h"
  18:src/main.c    **** #include "stm32f103_setup.h"
  19:src/main.c    **** #include "encoder.h"
  20:src/main.c    **** /*measure time passed since the last update*/
  21:src/main.c    **** uint32_t initialTime = 0;
  22:src/main.c    **** encoder_t left, right;
  23:src/main.c    **** 
  24:src/main.c    **** // init stm32 setup functions
  25:src/main.c    **** void init_setup(void)
  26:src/main.c    **** {
  46              		.loc 1 26 1
  47              		.cfi_startproc
  48              		@ args = 0, pretend = 0, frame = 0
  49              		@ frame_needed = 1, uses_anonymous_args = 0
  50 0000 80B5     		push	{r7, lr}
  51              		.cfi_def_cfa_offset 8
  52              		.cfi_offset 7, -8
  53              		.cfi_offset 14, -4
  54 0002 00AF     		add	r7, sp, #0
  55              		.cfi_def_cfa_register 7
  27:src/main.c    ****     setup_clock_speed();
  56              		.loc 1 27 5
  57 0004 FFF7FEFF 		bl	setup_clock_speed
  28:src/main.c    ****    //Enable DWT 
  29:src/main.c    ****     enableDWT();
  58              		.loc 1 29 5
  59 0008 FFF7FEFF 		bl	enableDWT
  30:src/main.c    ****     //init_rtc();
  31:src/main.c    ****    
  32:src/main.c    ****     init_encoder(&left, &right);
  60              		.loc 1 32 5
  61 000c 0249     		ldr	r1, .L2
  62 000e 0348     		ldr	r0, .L2+4
  63 0010 FFF7FEFF 		bl	init_encoder
  33:src/main.c    **** }
  64              		.loc 1 33 1
  65 0014 00BF     		nop
  66 0016 80BD     		pop	{r7, pc}
  67              	.L3:
  68              		.align	2
  69              	.L2:
  70 0018 00000000 		.word	right
  71 001c 00000000 		.word	left
  72              		.cfi_endproc
  73              	.LFE66:
  74              		.size	init_setup, .-init_setup
  75              		.section	.rodata
ARM GAS  /var/folders/7g/gx2z5z456bq_r9kbxlcydkzm0000gn/T//cczU858k.s 			page 3


  76              		.align	2
  77              	.LC0:
  78 0000 4D454D4F 		.ascii	"MEMORY %d kb  CLOCKSPEED %ld MHz   TIME %ld \012\000"
  78      52592025 
  78      64206B62 
  78      2020434C 
  78      4F434B53 
  79              		.text
  80              		.align	1
  81              		.global	main
  82              		.syntax unified
  83              		.thumb
  84              		.thumb_func
  85              		.type	main, %function
  86              	main:
  87              	.LFB67:
  34:src/main.c    **** 
  35:src/main.c    **** int main(void)
  36:src/main.c    **** {
  88              		.loc 1 36 1
  89              		.cfi_startproc
  90              		@ args = 0, pretend = 0, frame = 8
  91              		@ frame_needed = 1, uses_anonymous_args = 0
  92 0020 90B5     		push	{r4, r7, lr}
  93              		.cfi_def_cfa_offset 12
  94              		.cfi_offset 4, -12
  95              		.cfi_offset 7, -8
  96              		.cfi_offset 14, -4
  97 0022 83B0     		sub	sp, sp, #12
  98              		.cfi_def_cfa_offset 24
  99 0024 00AF     		add	r7, sp, #0
 100              		.cfi_def_cfa_register 7
  37:src/main.c    ****     
  38:src/main.c    **** 
  39:src/main.c    ****     init_setup();
 101              		.loc 1 39 5
 102 0026 FFF7FEFF 		bl	init_setup
  40:src/main.c    ****     uint32_t clock_speed = SystemCoreClock / 1000000;
 103              		.loc 1 40 44
 104 002a 134B     		ldr	r3, .L7
 105 002c 1B68     		ldr	r3, [r3]
 106              		.loc 1 40 14
 107 002e 134A     		ldr	r2, .L7+4
 108 0030 A2FB0323 		umull	r2, r3, r2, r3
 109 0034 9B0C     		lsrs	r3, r3, #18
 110 0036 7B60     		str	r3, [r7, #4]
  41:src/main.c    ****     printf("MEMORY %d kb  CLOCKSPEED %ld MHz   TIME %ld \n", *((uint16_t *)0x1FFFF7E0), clock_speed
 111              		.loc 1 41 62
 112 0038 114B     		ldr	r3, .L7+8
 113 003a 1B88     		ldrh	r3, [r3]
 114              		.loc 1 41 5
 115 003c 1C46     		mov	r4, r3
 116 003e FFF7FEFF 		bl	micros
 117 0042 0346     		mov	r3, r0
 118              		.loc 1 41 5 is_stmt 0 discriminator 1
 119 0044 7A68     		ldr	r2, [r7, #4]
 120 0046 2146     		mov	r1, r4
ARM GAS  /var/folders/7g/gx2z5z456bq_r9kbxlcydkzm0000gn/T//cczU858k.s 			page 4


 121 0048 0E48     		ldr	r0, .L7+12
 122 004a FFF7FEFF 		bl	printf
 123              	.L6:
 124              	.LBB2:
  42:src/main.c    **** 
  43:src/main.c    ****    
  44:src/main.c    ****     while (1)
  45:src/main.c    ****     {   
  46:src/main.c    **** 
  47:src/main.c    ****         uint32_t currentMillis = millis();
 125              		.loc 1 47 34 is_stmt 1
 126 004e FFF7FEFF 		bl	millis
 127 0052 3860     		str	r0, [r7]
  48:src/main.c    ****         if ( currentMillis - initialTime >= 100)
 128              		.loc 1 48 28
 129 0054 0C4B     		ldr	r3, .L7+16
 130 0056 1B68     		ldr	r3, [r3]
 131 0058 3A68     		ldr	r2, [r7]
 132 005a D31A     		subs	r3, r2, r3
 133              		.loc 1 48 12
 134 005c 632B     		cmp	r3, #99
 135 005e F6D9     		bls	.L6
  49:src/main.c    ****         {
  50:src/main.c    ****             update_speed(&left, &right);
 136              		.loc 1 50 13
 137 0060 0A49     		ldr	r1, .L7+20
 138 0062 0B48     		ldr	r0, .L7+24
 139 0064 FFF7FEFF 		bl	update_speed
  51:src/main.c    ****             // Print debug information
  52:src/main.c    ****             print_debug_info(&left, &right);
 140              		.loc 1 52 13
 141 0068 0849     		ldr	r1, .L7+20
 142 006a 0948     		ldr	r0, .L7+24
 143 006c FFF7FEFF 		bl	print_debug_info
  53:src/main.c    ****            
  54:src/main.c    ****         initialTime =  currentMillis;
 144              		.loc 1 54 21
 145 0070 054A     		ldr	r2, .L7+16
 146 0072 3B68     		ldr	r3, [r7]
 147 0074 1360     		str	r3, [r2]
 148              	.LBE2:
  45:src/main.c    **** 
 149              		.loc 1 45 5
 150 0076 EAE7     		b	.L6
 151              	.L8:
 152              		.align	2
 153              	.L7:
 154 0078 00000000 		.word	SystemCoreClock
 155 007c 83DE1B43 		.word	1125899907
 156 0080 E0F7FF1F 		.word	536868832
 157 0084 00000000 		.word	.LC0
 158 0088 00000000 		.word	initialTime
 159 008c 00000000 		.word	right
 160 0090 00000000 		.word	left
 161              		.cfi_endproc
 162              	.LFE67:
 163              		.size	main, .-main
ARM GAS  /var/folders/7g/gx2z5z456bq_r9kbxlcydkzm0000gn/T//cczU858k.s 			page 5


 164              	.Letext0:
 165              		.file 2 "/Applications/ArmGNUToolchain/13.2.Rel1/arm-none-eabi/arm-none-eabi/include/machine/_defa
 166              		.file 3 "/Applications/ArmGNUToolchain/13.2.Rel1/arm-none-eabi/arm-none-eabi/include/sys/_stdint.h
 167              		.file 4 "include/encoder.h"
 168              		.file 5 "./CMSIS/Device/STM32F1xx/include/system_stm32f1xx.h"
 169              		.file 6 "include/stm32f103_setup.h"
 170              		.file 7 "/Applications/ArmGNUToolchain/13.2.Rel1/arm-none-eabi/arm-none-eabi/include/stdio.h"