ARM GAS  /var/folders/7g/gx2z5z456bq_r9kbxlcydkzm0000gn/T//ccLFitMr.s 			page 1


   1              		.cpu cortex-m3
   2              		.arch armv7-m
   3              		.fpu softvfp
   4              		.eabi_attribute 20, 1
   5              		.eabi_attribute 21, 1
   6              		.eabi_attribute 23, 3
   7              		.eabi_attribute 24, 1
   8              		.eabi_attribute 25, 1
   9              		.eabi_attribute 26, 1
  10              		.eabi_attribute 30, 6
  11              		.eabi_attribute 34, 1
  12              		.eabi_attribute 18, 4
  13              		.file	"system_stm32f1xx.c"
  14              		.text
  15              	.Ltext0:
  16              		.cfi_sections	.debug_frame
  17              		.file 1 "CMSIS/Device/STM32F1xx/src/system_stm32f1xx.c"
  18              		.global	SystemCoreClock
  19              		.data
  20              		.align	2
  21              		.type	SystemCoreClock, %object
  22              		.size	SystemCoreClock, 4
  23              	SystemCoreClock:
  24 0000 00A24A04 		.word	72000000
  25              		.global	AHBPrescTable
  26              		.section	.rodata
  27              		.align	2
  28              		.type	AHBPrescTable, %object
  29              		.size	AHBPrescTable, 16
  30              	AHBPrescTable:
  31 0000 00000000 		.ascii	"\000\000\000\000\000\000\000\000\001\002\003\004\006"
  31      00000000 
  31      01020304 
  31      06
  32 000d 070809   		.ascii	"\007\010\011"
  33              		.global	APBPrescTable
  34              		.align	2
  35              		.type	APBPrescTable, %object
  36              		.size	APBPrescTable, 8
  37              	APBPrescTable:
  38 0010 00000000 		.ascii	"\000\000\000\000\001\002\003\004"
  38      01020304 
  39              		.text
  40              		.align	1
  41              		.global	SystemInit
  42              		.syntax unified
  43              		.thumb
  44              		.thumb_func
  45              		.type	SystemInit, %function
  46              	SystemInit:
  47              	.LFB63:
   1:CMSIS/Device/STM32F1xx/src/system_stm32f1xx.c **** /**
   2:CMSIS/Device/STM32F1xx/src/system_stm32f1xx.c ****   ******************************************************************************
   3:CMSIS/Device/STM32F1xx/src/system_stm32f1xx.c ****   * @file    system_stm32f1xx.c
   4:CMSIS/Device/STM32F1xx/src/system_stm32f1xx.c ****   * @author  MCD Application Team
   5:CMSIS/Device/STM32F1xx/src/system_stm32f1xx.c ****   * @version V4.2.0
   6:CMSIS/Device/STM32F1xx/src/system_stm32f1xx.c ****   * @date    31-March-2017
ARM GAS  /var/folders/7g/gx2z5z456bq_r9kbxlcydkzm0000gn/T//ccLFitMr.s 			page 2


   7:CMSIS/Device/STM32F1xx/src/system_stm32f1xx.c ****   * @brief   CMSIS Cortex-M3 Device Peripheral Access Layer System Source File.
   8:CMSIS/Device/STM32F1xx/src/system_stm32f1xx.c ****   * 
   9:CMSIS/Device/STM32F1xx/src/system_stm32f1xx.c ****   * 1.  This file provides two functions and one global variable to be called from 
  10:CMSIS/Device/STM32F1xx/src/system_stm32f1xx.c ****   *     user application:
  11:CMSIS/Device/STM32F1xx/src/system_stm32f1xx.c ****   *      - SystemInit(): Setups the system clock (System clock source, PLL Multiplier
  12:CMSIS/Device/STM32F1xx/src/system_stm32f1xx.c ****   *                      factors, AHB/APBx prescalers and Flash settings). 
  13:CMSIS/Device/STM32F1xx/src/system_stm32f1xx.c ****   *                      This function is called at startup just after reset and 
  14:CMSIS/Device/STM32F1xx/src/system_stm32f1xx.c ****   *                      before branch to main program. This call is made inside
  15:CMSIS/Device/STM32F1xx/src/system_stm32f1xx.c ****   *                      the "startup_stm32f1xx_xx.s" file.
  16:CMSIS/Device/STM32F1xx/src/system_stm32f1xx.c ****   *
  17:CMSIS/Device/STM32F1xx/src/system_stm32f1xx.c ****   *      - SystemCoreClock variable: Contains the core clock (HCLK), it can be used
  18:CMSIS/Device/STM32F1xx/src/system_stm32f1xx.c ****   *                                  by the user application to setup the SysTick 
  19:CMSIS/Device/STM32F1xx/src/system_stm32f1xx.c ****   *                                  timer or configure other parameters.
  20:CMSIS/Device/STM32F1xx/src/system_stm32f1xx.c ****   *                                     
  21:CMSIS/Device/STM32F1xx/src/system_stm32f1xx.c ****   *      - SystemCoreClockUpdate(): Updates the variable SystemCoreClock and must
  22:CMSIS/Device/STM32F1xx/src/system_stm32f1xx.c ****   *                                 be called whenever the core clock is changed
  23:CMSIS/Device/STM32F1xx/src/system_stm32f1xx.c ****   *                                 during program execution.
  24:CMSIS/Device/STM32F1xx/src/system_stm32f1xx.c ****   *
  25:CMSIS/Device/STM32F1xx/src/system_stm32f1xx.c ****   * 2. After each device reset the HSI (8 MHz) is used as system clock source.
  26:CMSIS/Device/STM32F1xx/src/system_stm32f1xx.c ****   *    Then SystemInit() function is called, in "startup_stm32f1xx_xx.s" file, to
  27:CMSIS/Device/STM32F1xx/src/system_stm32f1xx.c ****   *    configure the system clock before to branch to main program.
  28:CMSIS/Device/STM32F1xx/src/system_stm32f1xx.c ****   *
  29:CMSIS/Device/STM32F1xx/src/system_stm32f1xx.c ****   * 4. The default value of HSE crystal is set to 8 MHz (or 25 MHz, depending on
  30:CMSIS/Device/STM32F1xx/src/system_stm32f1xx.c ****   *    the product used), refer to "HSE_VALUE". 
  31:CMSIS/Device/STM32F1xx/src/system_stm32f1xx.c ****   *    When HSE is used as system clock source, directly or through PLL, and you
  32:CMSIS/Device/STM32F1xx/src/system_stm32f1xx.c ****   *    are using different crystal you have to adapt the HSE value to your own
  33:CMSIS/Device/STM32F1xx/src/system_stm32f1xx.c ****   *    configuration.
  34:CMSIS/Device/STM32F1xx/src/system_stm32f1xx.c ****   *        
  35:CMSIS/Device/STM32F1xx/src/system_stm32f1xx.c ****   ******************************************************************************
  36:CMSIS/Device/STM32F1xx/src/system_stm32f1xx.c ****   * @attention
  37:CMSIS/Device/STM32F1xx/src/system_stm32f1xx.c ****   *
  38:CMSIS/Device/STM32F1xx/src/system_stm32f1xx.c ****   * <h2><center>&copy; COPYRIGHT(c) 2017 STMicroelectronics</center></h2>
  39:CMSIS/Device/STM32F1xx/src/system_stm32f1xx.c ****   *
  40:CMSIS/Device/STM32F1xx/src/system_stm32f1xx.c ****   * Redistribution and use in source and binary forms, with or without modification,
  41:CMSIS/Device/STM32F1xx/src/system_stm32f1xx.c ****   * are permitted provided that the following conditions are met:
  42:CMSIS/Device/STM32F1xx/src/system_stm32f1xx.c ****   *   1. Redistributions of source code must retain the above copyright notice,
  43:CMSIS/Device/STM32F1xx/src/system_stm32f1xx.c ****   *      this list of conditions and the following disclaimer.
  44:CMSIS/Device/STM32F1xx/src/system_stm32f1xx.c ****   *   2. Redistributions in binary form must reproduce the above copyright notice,
  45:CMSIS/Device/STM32F1xx/src/system_stm32f1xx.c ****   *      this list of conditions and the following disclaimer in the documentation
  46:CMSIS/Device/STM32F1xx/src/system_stm32f1xx.c ****   *      and/or other materials provided with the distribution.
  47:CMSIS/Device/STM32F1xx/src/system_stm32f1xx.c ****   *   3. Neither the name of STMicroelectronics nor the names of its contributors
  48:CMSIS/Device/STM32F1xx/src/system_stm32f1xx.c ****   *      may be used to endorse or promote products derived from this software
  49:CMSIS/Device/STM32F1xx/src/system_stm32f1xx.c ****   *      without specific prior written permission.
  50:CMSIS/Device/STM32F1xx/src/system_stm32f1xx.c ****   *
  51:CMSIS/Device/STM32F1xx/src/system_stm32f1xx.c ****   * THIS SOFTWARE IS PROVIDED BY THE COPYRIGHT HOLDERS AND CONTRIBUTORS "AS IS"
  52:CMSIS/Device/STM32F1xx/src/system_stm32f1xx.c ****   * AND ANY EXPRESS OR IMPLIED WARRANTIES, INCLUDING, BUT NOT LIMITED TO, THE
  53:CMSIS/Device/STM32F1xx/src/system_stm32f1xx.c ****   * IMPLIED WARRANTIES OF MERCHANTABILITY AND FITNESS FOR A PARTICULAR PURPOSE ARE
  54:CMSIS/Device/STM32F1xx/src/system_stm32f1xx.c ****   * DISCLAIMED. IN NO EVENT SHALL THE COPYRIGHT HOLDER OR CONTRIBUTORS BE LIABLE
  55:CMSIS/Device/STM32F1xx/src/system_stm32f1xx.c ****   * FOR ANY DIRECT, INDIRECT, INCIDENTAL, SPECIAL, EXEMPLARY, OR CONSEQUENTIAL
  56:CMSIS/Device/STM32F1xx/src/system_stm32f1xx.c ****   * DAMAGES (INCLUDING, BUT NOT LIMITED TO, PROCUREMENT OF SUBSTITUTE GOODS OR
  57:CMSIS/Device/STM32F1xx/src/system_stm32f1xx.c ****   * SERVICES; LOSS OF USE, DATA, OR PROFITS; OR BUSINESS INTERRUPTION) HOWEVER
  58:CMSIS/Device/STM32F1xx/src/system_stm32f1xx.c ****   * CAUSED AND ON ANY THEORY OF LIABILITY, WHETHER IN CONTRACT, STRICT LIABILITY,
  59:CMSIS/Device/STM32F1xx/src/system_stm32f1xx.c ****   * OR TORT (INCLUDING NEGLIGENCE OR OTHERWISE) ARISING IN ANY WAY OUT OF THE USE
  60:CMSIS/Device/STM32F1xx/src/system_stm32f1xx.c ****   * OF THIS SOFTWARE, EVEN IF ADVISED OF THE POSSIBILITY OF SUCH DAMAGE.
  61:CMSIS/Device/STM32F1xx/src/system_stm32f1xx.c ****   *
  62:CMSIS/Device/STM32F1xx/src/system_stm32f1xx.c ****   ******************************************************************************
  63:CMSIS/Device/STM32F1xx/src/system_stm32f1xx.c ****   */
ARM GAS  /var/folders/7g/gx2z5z456bq_r9kbxlcydkzm0000gn/T//ccLFitMr.s 			page 3


  64:CMSIS/Device/STM32F1xx/src/system_stm32f1xx.c **** 
  65:CMSIS/Device/STM32F1xx/src/system_stm32f1xx.c **** /** @addtogroup CMSIS
  66:CMSIS/Device/STM32F1xx/src/system_stm32f1xx.c ****   * @{
  67:CMSIS/Device/STM32F1xx/src/system_stm32f1xx.c ****   */
  68:CMSIS/Device/STM32F1xx/src/system_stm32f1xx.c **** 
  69:CMSIS/Device/STM32F1xx/src/system_stm32f1xx.c **** /** @addtogroup stm32f1xx_system
  70:CMSIS/Device/STM32F1xx/src/system_stm32f1xx.c ****   * @{
  71:CMSIS/Device/STM32F1xx/src/system_stm32f1xx.c ****   */  
  72:CMSIS/Device/STM32F1xx/src/system_stm32f1xx.c ****   
  73:CMSIS/Device/STM32F1xx/src/system_stm32f1xx.c **** /** @addtogroup STM32F1xx_System_Private_Includes
  74:CMSIS/Device/STM32F1xx/src/system_stm32f1xx.c ****   * @{
  75:CMSIS/Device/STM32F1xx/src/system_stm32f1xx.c ****   */
  76:CMSIS/Device/STM32F1xx/src/system_stm32f1xx.c **** 
  77:CMSIS/Device/STM32F1xx/src/system_stm32f1xx.c **** #include "stm32f1xx.h"
  78:CMSIS/Device/STM32F1xx/src/system_stm32f1xx.c **** 
  79:CMSIS/Device/STM32F1xx/src/system_stm32f1xx.c **** /**
  80:CMSIS/Device/STM32F1xx/src/system_stm32f1xx.c ****   * @}
  81:CMSIS/Device/STM32F1xx/src/system_stm32f1xx.c ****   */
  82:CMSIS/Device/STM32F1xx/src/system_stm32f1xx.c **** 
  83:CMSIS/Device/STM32F1xx/src/system_stm32f1xx.c **** /** @addtogroup STM32F1xx_System_Private_TypesDefinitions
  84:CMSIS/Device/STM32F1xx/src/system_stm32f1xx.c ****   * @{
  85:CMSIS/Device/STM32F1xx/src/system_stm32f1xx.c ****   */
  86:CMSIS/Device/STM32F1xx/src/system_stm32f1xx.c **** 
  87:CMSIS/Device/STM32F1xx/src/system_stm32f1xx.c **** /**
  88:CMSIS/Device/STM32F1xx/src/system_stm32f1xx.c ****   * @}
  89:CMSIS/Device/STM32F1xx/src/system_stm32f1xx.c ****   */
  90:CMSIS/Device/STM32F1xx/src/system_stm32f1xx.c **** 
  91:CMSIS/Device/STM32F1xx/src/system_stm32f1xx.c **** /** @addtogroup STM32F1xx_System_Private_Defines
  92:CMSIS/Device/STM32F1xx/src/system_stm32f1xx.c ****   * @{
  93:CMSIS/Device/STM32F1xx/src/system_stm32f1xx.c ****   */
  94:CMSIS/Device/STM32F1xx/src/system_stm32f1xx.c **** 
  95:CMSIS/Device/STM32F1xx/src/system_stm32f1xx.c **** #if !defined  (HSE_VALUE) 
  96:CMSIS/Device/STM32F1xx/src/system_stm32f1xx.c ****   #define HSE_VALUE               8000000U /*!< Default value of the External oscillator in Hz.
  97:CMSIS/Device/STM32F1xx/src/system_stm32f1xx.c ****                                                 This value can be provided and adapted by the user 
  98:CMSIS/Device/STM32F1xx/src/system_stm32f1xx.c **** #endif /* HSE_VALUE */
  99:CMSIS/Device/STM32F1xx/src/system_stm32f1xx.c **** 
 100:CMSIS/Device/STM32F1xx/src/system_stm32f1xx.c **** #if !defined  (HSI_VALUE)
 101:CMSIS/Device/STM32F1xx/src/system_stm32f1xx.c ****   #define HSI_VALUE               8000000U /*!< Default value of the Internal oscillator in Hz.
 102:CMSIS/Device/STM32F1xx/src/system_stm32f1xx.c ****                                                 This value can be provided and adapted by the user 
 103:CMSIS/Device/STM32F1xx/src/system_stm32f1xx.c **** #endif /* HSI_VALUE */
 104:CMSIS/Device/STM32F1xx/src/system_stm32f1xx.c **** 
 105:CMSIS/Device/STM32F1xx/src/system_stm32f1xx.c **** /*!< Uncomment the following line if you need to use external SRAM  */ 
 106:CMSIS/Device/STM32F1xx/src/system_stm32f1xx.c **** #if defined(STM32F100xE) || defined(STM32F101xE) || defined(STM32F101xG) || defined(STM32F103xE) ||
 107:CMSIS/Device/STM32F1xx/src/system_stm32f1xx.c **** /* #define DATA_IN_ExtSRAM */
 108:CMSIS/Device/STM32F1xx/src/system_stm32f1xx.c **** #endif /* STM32F100xE || STM32F101xE || STM32F101xG || STM32F103xE || STM32F103xG */
 109:CMSIS/Device/STM32F1xx/src/system_stm32f1xx.c **** 
 110:CMSIS/Device/STM32F1xx/src/system_stm32f1xx.c **** /*!< Uncomment the following line if you need to relocate your vector Table in
 111:CMSIS/Device/STM32F1xx/src/system_stm32f1xx.c ****      Internal SRAM. */ 
 112:CMSIS/Device/STM32F1xx/src/system_stm32f1xx.c **** /* #define VECT_TAB_SRAM */
 113:CMSIS/Device/STM32F1xx/src/system_stm32f1xx.c **** #define VECT_TAB_OFFSET  0x00000000U /*!< Vector Table base offset field. 
 114:CMSIS/Device/STM32F1xx/src/system_stm32f1xx.c ****                                   This value must be a multiple of 0x200. */
 115:CMSIS/Device/STM32F1xx/src/system_stm32f1xx.c **** 
 116:CMSIS/Device/STM32F1xx/src/system_stm32f1xx.c **** 
 117:CMSIS/Device/STM32F1xx/src/system_stm32f1xx.c **** /**
 118:CMSIS/Device/STM32F1xx/src/system_stm32f1xx.c ****   * @}
 119:CMSIS/Device/STM32F1xx/src/system_stm32f1xx.c ****   */
 120:CMSIS/Device/STM32F1xx/src/system_stm32f1xx.c **** 
ARM GAS  /var/folders/7g/gx2z5z456bq_r9kbxlcydkzm0000gn/T//ccLFitMr.s 			page 4


 121:CMSIS/Device/STM32F1xx/src/system_stm32f1xx.c **** /** @addtogroup STM32F1xx_System_Private_Macros
 122:CMSIS/Device/STM32F1xx/src/system_stm32f1xx.c ****   * @{
 123:CMSIS/Device/STM32F1xx/src/system_stm32f1xx.c ****   */
 124:CMSIS/Device/STM32F1xx/src/system_stm32f1xx.c **** 
 125:CMSIS/Device/STM32F1xx/src/system_stm32f1xx.c **** /**
 126:CMSIS/Device/STM32F1xx/src/system_stm32f1xx.c ****   * @}
 127:CMSIS/Device/STM32F1xx/src/system_stm32f1xx.c ****   */
 128:CMSIS/Device/STM32F1xx/src/system_stm32f1xx.c **** 
 129:CMSIS/Device/STM32F1xx/src/system_stm32f1xx.c **** /** @addtogroup STM32F1xx_System_Private_Variables
 130:CMSIS/Device/STM32F1xx/src/system_stm32f1xx.c ****   * @{
 131:CMSIS/Device/STM32F1xx/src/system_stm32f1xx.c ****   */
 132:CMSIS/Device/STM32F1xx/src/system_stm32f1xx.c **** 
 133:CMSIS/Device/STM32F1xx/src/system_stm32f1xx.c **** /*******************************************************************************
 134:CMSIS/Device/STM32F1xx/src/system_stm32f1xx.c **** *  Clock Definitions
 135:CMSIS/Device/STM32F1xx/src/system_stm32f1xx.c **** *******************************************************************************/
 136:CMSIS/Device/STM32F1xx/src/system_stm32f1xx.c **** #if defined(STM32F100xB) ||defined(STM32F100xE)
 137:CMSIS/Device/STM32F1xx/src/system_stm32f1xx.c ****   uint32_t SystemCoreClock         = 24000000U;        /*!< System Clock Frequency (Core Clock) */
 138:CMSIS/Device/STM32F1xx/src/system_stm32f1xx.c **** #else /*!< HSI Selected as System Clock source */
 139:CMSIS/Device/STM32F1xx/src/system_stm32f1xx.c ****   uint32_t SystemCoreClock         = 72000000U;        /*!< System Clock Frequency (Core Clock) */
 140:CMSIS/Device/STM32F1xx/src/system_stm32f1xx.c **** #endif
 141:CMSIS/Device/STM32F1xx/src/system_stm32f1xx.c **** 
 142:CMSIS/Device/STM32F1xx/src/system_stm32f1xx.c **** const uint8_t AHBPrescTable[16U] = {0, 0, 0, 0, 0, 0, 0, 0, 1, 2, 3, 4, 6, 7, 8, 9};
 143:CMSIS/Device/STM32F1xx/src/system_stm32f1xx.c **** const uint8_t APBPrescTable[8U] =  {0, 0, 0, 0, 1, 2, 3, 4};
 144:CMSIS/Device/STM32F1xx/src/system_stm32f1xx.c **** 
 145:CMSIS/Device/STM32F1xx/src/system_stm32f1xx.c **** /**
 146:CMSIS/Device/STM32F1xx/src/system_stm32f1xx.c ****   * @}
 147:CMSIS/Device/STM32F1xx/src/system_stm32f1xx.c ****   */
 148:CMSIS/Device/STM32F1xx/src/system_stm32f1xx.c **** 
 149:CMSIS/Device/STM32F1xx/src/system_stm32f1xx.c **** /** @addtogroup STM32F1xx_System_Private_FunctionPrototypes
 150:CMSIS/Device/STM32F1xx/src/system_stm32f1xx.c ****   * @{
 151:CMSIS/Device/STM32F1xx/src/system_stm32f1xx.c ****   */
 152:CMSIS/Device/STM32F1xx/src/system_stm32f1xx.c **** 
 153:CMSIS/Device/STM32F1xx/src/system_stm32f1xx.c **** #if defined(STM32F100xE) || defined(STM32F101xE) || defined(STM32F101xG) || defined(STM32F103xE) ||
 154:CMSIS/Device/STM32F1xx/src/system_stm32f1xx.c **** #ifdef DATA_IN_ExtSRAM
 155:CMSIS/Device/STM32F1xx/src/system_stm32f1xx.c ****   static void SystemInit_ExtMemCtl(void); 
 156:CMSIS/Device/STM32F1xx/src/system_stm32f1xx.c **** #endif /* DATA_IN_ExtSRAM */
 157:CMSIS/Device/STM32F1xx/src/system_stm32f1xx.c **** #endif /* STM32F100xE || STM32F101xE || STM32F101xG || STM32F103xE || STM32F103xG */
 158:CMSIS/Device/STM32F1xx/src/system_stm32f1xx.c **** 
 159:CMSIS/Device/STM32F1xx/src/system_stm32f1xx.c **** /**
 160:CMSIS/Device/STM32F1xx/src/system_stm32f1xx.c ****   * @}
 161:CMSIS/Device/STM32F1xx/src/system_stm32f1xx.c ****   */
 162:CMSIS/Device/STM32F1xx/src/system_stm32f1xx.c **** 
 163:CMSIS/Device/STM32F1xx/src/system_stm32f1xx.c **** /** @addtogroup STM32F1xx_System_Private_Functions
 164:CMSIS/Device/STM32F1xx/src/system_stm32f1xx.c ****   * @{
 165:CMSIS/Device/STM32F1xx/src/system_stm32f1xx.c ****   */
 166:CMSIS/Device/STM32F1xx/src/system_stm32f1xx.c **** 
 167:CMSIS/Device/STM32F1xx/src/system_stm32f1xx.c **** /**
 168:CMSIS/Device/STM32F1xx/src/system_stm32f1xx.c ****   * @brief  Setup the microcontroller system
 169:CMSIS/Device/STM32F1xx/src/system_stm32f1xx.c ****   *         Initialize the Embedded Flash Interface, the PLL and update the 
 170:CMSIS/Device/STM32F1xx/src/system_stm32f1xx.c ****   *         SystemCoreClock variable.
 171:CMSIS/Device/STM32F1xx/src/system_stm32f1xx.c ****   * @note   This function should be used only after reset.
 172:CMSIS/Device/STM32F1xx/src/system_stm32f1xx.c ****   * @param  None
 173:CMSIS/Device/STM32F1xx/src/system_stm32f1xx.c ****   * @retval None
 174:CMSIS/Device/STM32F1xx/src/system_stm32f1xx.c ****   */
 175:CMSIS/Device/STM32F1xx/src/system_stm32f1xx.c **** void SystemInit (void)
 176:CMSIS/Device/STM32F1xx/src/system_stm32f1xx.c **** {
  48              		.loc 1 176 1
ARM GAS  /var/folders/7g/gx2z5z456bq_r9kbxlcydkzm0000gn/T//ccLFitMr.s 			page 5


  49              		.cfi_startproc
  50              		@ args = 0, pretend = 0, frame = 0
  51              		@ frame_needed = 1, uses_anonymous_args = 0
  52              		@ link register save eliminated.
  53 0000 80B4     		push	{r7}
  54              		.cfi_def_cfa_offset 4
  55              		.cfi_offset 7, -4
  56 0002 00AF     		add	r7, sp, #0
  57              		.cfi_def_cfa_register 7
 177:CMSIS/Device/STM32F1xx/src/system_stm32f1xx.c ****   /* Reset the RCC clock configuration to the default reset state(for debug purpose) */
 178:CMSIS/Device/STM32F1xx/src/system_stm32f1xx.c ****   /* Set HSION bit */
 179:CMSIS/Device/STM32F1xx/src/system_stm32f1xx.c ****   RCC->CR |= 0x00000001U;
  58              		.loc 1 179 6
  59 0004 154B     		ldr	r3, .L2
  60 0006 1B68     		ldr	r3, [r3]
  61 0008 144A     		ldr	r2, .L2
  62              		.loc 1 179 11
  63 000a 43F00103 		orr	r3, r3, #1
  64 000e 1360     		str	r3, [r2]
 180:CMSIS/Device/STM32F1xx/src/system_stm32f1xx.c **** 
 181:CMSIS/Device/STM32F1xx/src/system_stm32f1xx.c ****   /* Reset SW, HPRE, PPRE1, PPRE2, ADCPRE and MCO bits */
 182:CMSIS/Device/STM32F1xx/src/system_stm32f1xx.c **** #if !defined(STM32F105xC) && !defined(STM32F107xC)
 183:CMSIS/Device/STM32F1xx/src/system_stm32f1xx.c ****   RCC->CFGR &= 0xF8FF0000U;
  65              		.loc 1 183 6
  66 0010 124B     		ldr	r3, .L2
  67 0012 5A68     		ldr	r2, [r3, #4]
  68 0014 1149     		ldr	r1, .L2
  69              		.loc 1 183 13
  70 0016 124B     		ldr	r3, .L2+4
  71 0018 1340     		ands	r3, r3, r2
  72 001a 4B60     		str	r3, [r1, #4]
 184:CMSIS/Device/STM32F1xx/src/system_stm32f1xx.c **** #else
 185:CMSIS/Device/STM32F1xx/src/system_stm32f1xx.c ****   RCC->CFGR &= 0xF0FF0000U;
 186:CMSIS/Device/STM32F1xx/src/system_stm32f1xx.c **** #endif /* STM32F105xC */   
 187:CMSIS/Device/STM32F1xx/src/system_stm32f1xx.c ****   
 188:CMSIS/Device/STM32F1xx/src/system_stm32f1xx.c ****   /* Reset HSEON, CSSON and PLLON bits */
 189:CMSIS/Device/STM32F1xx/src/system_stm32f1xx.c ****   RCC->CR &= 0xFEF6FFFFU;
  73              		.loc 1 189 6
  74 001c 0F4B     		ldr	r3, .L2
  75 001e 1B68     		ldr	r3, [r3]
  76 0020 0E4A     		ldr	r2, .L2
  77              		.loc 1 189 11
  78 0022 23F08473 		bic	r3, r3, #17301504
  79 0026 23F48033 		bic	r3, r3, #65536
  80 002a 1360     		str	r3, [r2]
 190:CMSIS/Device/STM32F1xx/src/system_stm32f1xx.c **** 
 191:CMSIS/Device/STM32F1xx/src/system_stm32f1xx.c ****   /* Reset HSEBYP bit */
 192:CMSIS/Device/STM32F1xx/src/system_stm32f1xx.c ****   RCC->CR &= 0xFFFBFFFFU;
  81              		.loc 1 192 6
  82 002c 0B4B     		ldr	r3, .L2
  83 002e 1B68     		ldr	r3, [r3]
  84 0030 0A4A     		ldr	r2, .L2
  85              		.loc 1 192 11
  86 0032 23F48023 		bic	r3, r3, #262144
  87 0036 1360     		str	r3, [r2]
 193:CMSIS/Device/STM32F1xx/src/system_stm32f1xx.c **** 
 194:CMSIS/Device/STM32F1xx/src/system_stm32f1xx.c ****   /* Reset PLLSRC, PLLXTPRE, PLLMUL and USBPRE/OTGFSPRE bits */
ARM GAS  /var/folders/7g/gx2z5z456bq_r9kbxlcydkzm0000gn/T//ccLFitMr.s 			page 6


 195:CMSIS/Device/STM32F1xx/src/system_stm32f1xx.c ****   RCC->CFGR &= 0xFF80FFFFU;
  88              		.loc 1 195 6
  89 0038 084B     		ldr	r3, .L2
  90 003a 5B68     		ldr	r3, [r3, #4]
  91 003c 074A     		ldr	r2, .L2
  92              		.loc 1 195 13
  93 003e 23F4FE03 		bic	r3, r3, #8323072
  94 0042 5360     		str	r3, [r2, #4]
 196:CMSIS/Device/STM32F1xx/src/system_stm32f1xx.c **** 
 197:CMSIS/Device/STM32F1xx/src/system_stm32f1xx.c **** #if defined(STM32F105xC) || defined(STM32F107xC)
 198:CMSIS/Device/STM32F1xx/src/system_stm32f1xx.c ****   /* Reset PLL2ON and PLL3ON bits */
 199:CMSIS/Device/STM32F1xx/src/system_stm32f1xx.c ****   RCC->CR &= 0xEBFFFFFFU;
 200:CMSIS/Device/STM32F1xx/src/system_stm32f1xx.c **** 
 201:CMSIS/Device/STM32F1xx/src/system_stm32f1xx.c ****   /* Disable all interrupts and clear pending bits  */
 202:CMSIS/Device/STM32F1xx/src/system_stm32f1xx.c ****   RCC->CIR = 0x00FF0000U;
 203:CMSIS/Device/STM32F1xx/src/system_stm32f1xx.c **** 
 204:CMSIS/Device/STM32F1xx/src/system_stm32f1xx.c ****   /* Reset CFGR2 register */
 205:CMSIS/Device/STM32F1xx/src/system_stm32f1xx.c ****   RCC->CFGR2 = 0x00000000U;
 206:CMSIS/Device/STM32F1xx/src/system_stm32f1xx.c **** #elif defined(STM32F100xB) || defined(STM32F100xE)
 207:CMSIS/Device/STM32F1xx/src/system_stm32f1xx.c ****   /* Disable all interrupts and clear pending bits  */
 208:CMSIS/Device/STM32F1xx/src/system_stm32f1xx.c ****   RCC->CIR = 0x009F0000U;
 209:CMSIS/Device/STM32F1xx/src/system_stm32f1xx.c **** 
 210:CMSIS/Device/STM32F1xx/src/system_stm32f1xx.c ****   /* Reset CFGR2 register */
 211:CMSIS/Device/STM32F1xx/src/system_stm32f1xx.c ****   RCC->CFGR2 = 0x00000000U;      
 212:CMSIS/Device/STM32F1xx/src/system_stm32f1xx.c **** #else
 213:CMSIS/Device/STM32F1xx/src/system_stm32f1xx.c ****   /* Disable all interrupts and clear pending bits  */
 214:CMSIS/Device/STM32F1xx/src/system_stm32f1xx.c ****   RCC->CIR = 0x009F0000U;
  95              		.loc 1 214 6
  96 0044 054B     		ldr	r3, .L2
  97              		.loc 1 214 12
  98 0046 4FF41F02 		mov	r2, #10420224
  99 004a 9A60     		str	r2, [r3, #8]
 215:CMSIS/Device/STM32F1xx/src/system_stm32f1xx.c **** #endif /* STM32F105xC */
 216:CMSIS/Device/STM32F1xx/src/system_stm32f1xx.c ****     
 217:CMSIS/Device/STM32F1xx/src/system_stm32f1xx.c **** #if defined(STM32F100xE) || defined(STM32F101xE) || defined(STM32F101xG) || defined(STM32F103xE) ||
 218:CMSIS/Device/STM32F1xx/src/system_stm32f1xx.c ****   #ifdef DATA_IN_ExtSRAM
 219:CMSIS/Device/STM32F1xx/src/system_stm32f1xx.c ****     SystemInit_ExtMemCtl(); 
 220:CMSIS/Device/STM32F1xx/src/system_stm32f1xx.c ****   #endif /* DATA_IN_ExtSRAM */
 221:CMSIS/Device/STM32F1xx/src/system_stm32f1xx.c **** #endif 
 222:CMSIS/Device/STM32F1xx/src/system_stm32f1xx.c **** 
 223:CMSIS/Device/STM32F1xx/src/system_stm32f1xx.c **** #ifdef VECT_TAB_SRAM
 224:CMSIS/Device/STM32F1xx/src/system_stm32f1xx.c ****   SCB->VTOR = SRAM_BASE | VECT_TAB_OFFSET; /* Vector Table Relocation in Internal SRAM. */
 225:CMSIS/Device/STM32F1xx/src/system_stm32f1xx.c **** #else
 226:CMSIS/Device/STM32F1xx/src/system_stm32f1xx.c ****   SCB->VTOR = FLASH_BASE | VECT_TAB_OFFSET; /* Vector Table Relocation in Internal FLASH. */
 100              		.loc 1 226 6
 101 004c 054B     		ldr	r3, .L2+8
 102              		.loc 1 226 13
 103 004e 4FF00062 		mov	r2, #134217728
 104 0052 9A60     		str	r2, [r3, #8]
 227:CMSIS/Device/STM32F1xx/src/system_stm32f1xx.c **** #endif 
 228:CMSIS/Device/STM32F1xx/src/system_stm32f1xx.c **** }
 105              		.loc 1 228 1
 106 0054 00BF     		nop
 107 0056 BD46     		mov	sp, r7
 108              		.cfi_def_cfa_register 13
 109              		@ sp needed
 110 0058 80BC     		pop	{r7}
ARM GAS  /var/folders/7g/gx2z5z456bq_r9kbxlcydkzm0000gn/T//ccLFitMr.s 			page 7


 111              		.cfi_restore 7
 112              		.cfi_def_cfa_offset 0
 113 005a 7047     		bx	lr
 114              	.L3:
 115              		.align	2
 116              	.L2:
 117 005c 00100240 		.word	1073876992
 118 0060 0000FFF8 		.word	-117506048
 119 0064 00ED00E0 		.word	-536810240
 120              		.cfi_endproc
 121              	.LFE63:
 122              		.size	SystemInit, .-SystemInit
 123              		.align	1
 124              		.global	SystemCoreClockUpdate
 125              		.syntax unified
 126              		.thumb
 127              		.thumb_func
 128              		.type	SystemCoreClockUpdate, %function
 129              	SystemCoreClockUpdate:
 130              	.LFB64:
 229:CMSIS/Device/STM32F1xx/src/system_stm32f1xx.c **** 
 230:CMSIS/Device/STM32F1xx/src/system_stm32f1xx.c **** /**
 231:CMSIS/Device/STM32F1xx/src/system_stm32f1xx.c ****   * @brief  Update SystemCoreClock variable according to Clock Register Values.
 232:CMSIS/Device/STM32F1xx/src/system_stm32f1xx.c ****   *         The SystemCoreClock variable contains the core clock (HCLK), it can
 233:CMSIS/Device/STM32F1xx/src/system_stm32f1xx.c ****   *         be used by the user application to setup the SysTick timer or configure
 234:CMSIS/Device/STM32F1xx/src/system_stm32f1xx.c ****   *         other parameters.
 235:CMSIS/Device/STM32F1xx/src/system_stm32f1xx.c ****   *           
 236:CMSIS/Device/STM32F1xx/src/system_stm32f1xx.c ****   * @note   Each time the core clock (HCLK) changes, this function must be called
 237:CMSIS/Device/STM32F1xx/src/system_stm32f1xx.c ****   *         to update SystemCoreClock variable value. Otherwise, any configuration
 238:CMSIS/Device/STM32F1xx/src/system_stm32f1xx.c ****   *         based on this variable will be incorrect.         
 239:CMSIS/Device/STM32F1xx/src/system_stm32f1xx.c ****   *     
 240:CMSIS/Device/STM32F1xx/src/system_stm32f1xx.c ****   * @note   - The system frequency computed by this function is not the real 
 241:CMSIS/Device/STM32F1xx/src/system_stm32f1xx.c ****   *           frequency in the chip. It is calculated based on the predefined 
 242:CMSIS/Device/STM32F1xx/src/system_stm32f1xx.c ****   *           constant and the selected clock source:
 243:CMSIS/Device/STM32F1xx/src/system_stm32f1xx.c ****   *             
 244:CMSIS/Device/STM32F1xx/src/system_stm32f1xx.c ****   *           - If SYSCLK source is HSI, SystemCoreClock will contain the HSI_VALUE(*)
 245:CMSIS/Device/STM32F1xx/src/system_stm32f1xx.c ****   *                                              
 246:CMSIS/Device/STM32F1xx/src/system_stm32f1xx.c ****   *           - If SYSCLK source is HSE, SystemCoreClock will contain the HSE_VALUE(**)
 247:CMSIS/Device/STM32F1xx/src/system_stm32f1xx.c ****   *                          
 248:CMSIS/Device/STM32F1xx/src/system_stm32f1xx.c ****   *           - If SYSCLK source is PLL, SystemCoreClock will contain the HSE_VALUE(**) 
 249:CMSIS/Device/STM32F1xx/src/system_stm32f1xx.c ****   *             or HSI_VALUE(*) multiplied by the PLL factors.
 250:CMSIS/Device/STM32F1xx/src/system_stm32f1xx.c ****   *         
 251:CMSIS/Device/STM32F1xx/src/system_stm32f1xx.c ****   *         (*) HSI_VALUE is a constant defined in stm32f1xx.h file (default value
 252:CMSIS/Device/STM32F1xx/src/system_stm32f1xx.c ****   *             8 MHz) but the real value may vary depending on the variations
 253:CMSIS/Device/STM32F1xx/src/system_stm32f1xx.c ****   *             in voltage and temperature.   
 254:CMSIS/Device/STM32F1xx/src/system_stm32f1xx.c ****   *    
 255:CMSIS/Device/STM32F1xx/src/system_stm32f1xx.c ****   *         (**) HSE_VALUE is a constant defined in stm32f1xx.h file (default value
 256:CMSIS/Device/STM32F1xx/src/system_stm32f1xx.c ****   *              8 MHz or 25 MHz, depending on the product used), user has to ensure
 257:CMSIS/Device/STM32F1xx/src/system_stm32f1xx.c ****   *              that HSE_VALUE is same as the real frequency of the crystal used.
 258:CMSIS/Device/STM32F1xx/src/system_stm32f1xx.c ****   *              Otherwise, this function may have wrong result.
 259:CMSIS/Device/STM32F1xx/src/system_stm32f1xx.c ****   *                
 260:CMSIS/Device/STM32F1xx/src/system_stm32f1xx.c ****   *         - The result of this function could be not correct when using fractional
 261:CMSIS/Device/STM32F1xx/src/system_stm32f1xx.c ****   *           value for HSE crystal.
 262:CMSIS/Device/STM32F1xx/src/system_stm32f1xx.c ****   * @param  None
 263:CMSIS/Device/STM32F1xx/src/system_stm32f1xx.c ****   * @retval None
 264:CMSIS/Device/STM32F1xx/src/system_stm32f1xx.c ****   */
 265:CMSIS/Device/STM32F1xx/src/system_stm32f1xx.c **** void SystemCoreClockUpdate (void)
ARM GAS  /var/folders/7g/gx2z5z456bq_r9kbxlcydkzm0000gn/T//ccLFitMr.s 			page 8


 266:CMSIS/Device/STM32F1xx/src/system_stm32f1xx.c **** {
 131              		.loc 1 266 1
 132              		.cfi_startproc
 133              		@ args = 0, pretend = 0, frame = 16
 134              		@ frame_needed = 1, uses_anonymous_args = 0
 135              		@ link register save eliminated.
 136 0068 80B4     		push	{r7}
 137              		.cfi_def_cfa_offset 4
 138              		.cfi_offset 7, -4
 139 006a 85B0     		sub	sp, sp, #20
 140              		.cfi_def_cfa_offset 24
 141 006c 00AF     		add	r7, sp, #0
 142              		.cfi_def_cfa_register 7
 267:CMSIS/Device/STM32F1xx/src/system_stm32f1xx.c ****   uint32_t tmp = 0U, pllmull = 0U, pllsource = 0U;
 143              		.loc 1 267 12
 144 006e 0023     		movs	r3, #0
 145 0070 FB60     		str	r3, [r7, #12]
 146              		.loc 1 267 22
 147 0072 0023     		movs	r3, #0
 148 0074 BB60     		str	r3, [r7, #8]
 149              		.loc 1 267 36
 150 0076 0023     		movs	r3, #0
 151 0078 7B60     		str	r3, [r7, #4]
 268:CMSIS/Device/STM32F1xx/src/system_stm32f1xx.c **** 
 269:CMSIS/Device/STM32F1xx/src/system_stm32f1xx.c **** #if defined(STM32F105xC) || defined(STM32F107xC)
 270:CMSIS/Device/STM32F1xx/src/system_stm32f1xx.c ****   uint32_t prediv1source = 0U, prediv1factor = 0U, prediv2factor = 0U, pll2mull = 0U;
 271:CMSIS/Device/STM32F1xx/src/system_stm32f1xx.c **** #endif /* STM32F105xC */
 272:CMSIS/Device/STM32F1xx/src/system_stm32f1xx.c **** 
 273:CMSIS/Device/STM32F1xx/src/system_stm32f1xx.c **** #if defined(STM32F100xB) || defined(STM32F100xE)
 274:CMSIS/Device/STM32F1xx/src/system_stm32f1xx.c ****   uint32_t prediv1factor = 0U;
 275:CMSIS/Device/STM32F1xx/src/system_stm32f1xx.c **** #endif /* STM32F100xB or STM32F100xE */
 276:CMSIS/Device/STM32F1xx/src/system_stm32f1xx.c ****     
 277:CMSIS/Device/STM32F1xx/src/system_stm32f1xx.c ****   /* Get SYSCLK source -------------------------------------------------------*/
 278:CMSIS/Device/STM32F1xx/src/system_stm32f1xx.c ****   tmp = RCC->CFGR & RCC_CFGR_SWS;
 152              		.loc 1 278 12
 153 007a 2F4B     		ldr	r3, .L13
 154 007c 5B68     		ldr	r3, [r3, #4]
 155              		.loc 1 278 7
 156 007e 03F00C03 		and	r3, r3, #12
 157 0082 FB60     		str	r3, [r7, #12]
 279:CMSIS/Device/STM32F1xx/src/system_stm32f1xx.c ****   
 280:CMSIS/Device/STM32F1xx/src/system_stm32f1xx.c ****   switch (tmp)
 158              		.loc 1 280 3
 159 0084 FB68     		ldr	r3, [r7, #12]
 160 0086 082B     		cmp	r3, #8
 161 0088 11D0     		beq	.L5
 162 008a FB68     		ldr	r3, [r7, #12]
 163 008c 082B     		cmp	r3, #8
 164 008e 3AD8     		bhi	.L6
 165 0090 FB68     		ldr	r3, [r7, #12]
 166 0092 002B     		cmp	r3, #0
 167 0094 03D0     		beq	.L7
 168 0096 FB68     		ldr	r3, [r7, #12]
 169 0098 042B     		cmp	r3, #4
 170 009a 04D0     		beq	.L8
 171 009c 33E0     		b	.L6
 172              	.L7:
ARM GAS  /var/folders/7g/gx2z5z456bq_r9kbxlcydkzm0000gn/T//ccLFitMr.s 			page 9


 281:CMSIS/Device/STM32F1xx/src/system_stm32f1xx.c ****   {
 282:CMSIS/Device/STM32F1xx/src/system_stm32f1xx.c ****     case 0x00U:  /* HSI used as system clock */
 283:CMSIS/Device/STM32F1xx/src/system_stm32f1xx.c ****       SystemCoreClock = HSI_VALUE;
 173              		.loc 1 283 23
 174 009e 274B     		ldr	r3, .L13+4
 175 00a0 274A     		ldr	r2, .L13+8
 176 00a2 1A60     		str	r2, [r3]
 284:CMSIS/Device/STM32F1xx/src/system_stm32f1xx.c ****       break;
 177              		.loc 1 284 7
 178 00a4 33E0     		b	.L9
 179              	.L8:
 285:CMSIS/Device/STM32F1xx/src/system_stm32f1xx.c ****     case 0x04U:  /* HSE used as system clock */
 286:CMSIS/Device/STM32F1xx/src/system_stm32f1xx.c ****       SystemCoreClock = HSE_VALUE;
 180              		.loc 1 286 23
 181 00a6 254B     		ldr	r3, .L13+4
 182 00a8 254A     		ldr	r2, .L13+8
 183 00aa 1A60     		str	r2, [r3]
 287:CMSIS/Device/STM32F1xx/src/system_stm32f1xx.c ****       break;
 184              		.loc 1 287 7
 185 00ac 2FE0     		b	.L9
 186              	.L5:
 288:CMSIS/Device/STM32F1xx/src/system_stm32f1xx.c ****     case 0x08U:  /* PLL used as system clock */
 289:CMSIS/Device/STM32F1xx/src/system_stm32f1xx.c **** 
 290:CMSIS/Device/STM32F1xx/src/system_stm32f1xx.c ****       /* Get PLL clock source and multiplication factor ----------------------*/
 291:CMSIS/Device/STM32F1xx/src/system_stm32f1xx.c ****       pllmull = RCC->CFGR & RCC_CFGR_PLLMULL;
 187              		.loc 1 291 20
 188 00ae 224B     		ldr	r3, .L13
 189 00b0 5B68     		ldr	r3, [r3, #4]
 190              		.loc 1 291 15
 191 00b2 03F47013 		and	r3, r3, #3932160
 192 00b6 BB60     		str	r3, [r7, #8]
 292:CMSIS/Device/STM32F1xx/src/system_stm32f1xx.c ****       pllsource = RCC->CFGR & RCC_CFGR_PLLSRC;
 193              		.loc 1 292 22
 194 00b8 1F4B     		ldr	r3, .L13
 195 00ba 5B68     		ldr	r3, [r3, #4]
 196              		.loc 1 292 17
 197 00bc 03F48033 		and	r3, r3, #65536
 198 00c0 7B60     		str	r3, [r7, #4]
 293:CMSIS/Device/STM32F1xx/src/system_stm32f1xx.c ****       
 294:CMSIS/Device/STM32F1xx/src/system_stm32f1xx.c **** #if !defined(STM32F105xC) && !defined(STM32F107xC)      
 295:CMSIS/Device/STM32F1xx/src/system_stm32f1xx.c ****       pllmull = ( pllmull >> 18U) + 2U;
 199              		.loc 1 295 27
 200 00c2 BB68     		ldr	r3, [r7, #8]
 201 00c4 9B0C     		lsrs	r3, r3, #18
 202              		.loc 1 295 15
 203 00c6 0233     		adds	r3, r3, #2
 204 00c8 BB60     		str	r3, [r7, #8]
 296:CMSIS/Device/STM32F1xx/src/system_stm32f1xx.c ****       
 297:CMSIS/Device/STM32F1xx/src/system_stm32f1xx.c ****       if (pllsource == 0x00U)
 205              		.loc 1 297 10
 206 00ca 7B68     		ldr	r3, [r7, #4]
 207 00cc 002B     		cmp	r3, #0
 208 00ce 06D1     		bne	.L10
 298:CMSIS/Device/STM32F1xx/src/system_stm32f1xx.c ****       {
 299:CMSIS/Device/STM32F1xx/src/system_stm32f1xx.c ****         /* HSI oscillator clock divided by 2 selected as PLL clock entry */
 300:CMSIS/Device/STM32F1xx/src/system_stm32f1xx.c ****         SystemCoreClock = (HSI_VALUE >> 1U) * pllmull;
 209              		.loc 1 300 45
ARM GAS  /var/folders/7g/gx2z5z456bq_r9kbxlcydkzm0000gn/T//ccLFitMr.s 			page 10


 210 00d0 BB68     		ldr	r3, [r7, #8]
 211 00d2 1C4A     		ldr	r2, .L13+12
 212 00d4 02FB03F3 		mul	r3, r2, r3
 213              		.loc 1 300 25
 214 00d8 184A     		ldr	r2, .L13+4
 215 00da 1360     		str	r3, [r2]
 301:CMSIS/Device/STM32F1xx/src/system_stm32f1xx.c ****       }
 302:CMSIS/Device/STM32F1xx/src/system_stm32f1xx.c ****       else
 303:CMSIS/Device/STM32F1xx/src/system_stm32f1xx.c ****       {
 304:CMSIS/Device/STM32F1xx/src/system_stm32f1xx.c ****  #if defined(STM32F100xB) || defined(STM32F100xE)
 305:CMSIS/Device/STM32F1xx/src/system_stm32f1xx.c ****        prediv1factor = (RCC->CFGR2 & RCC_CFGR2_PREDIV1) + 1U;
 306:CMSIS/Device/STM32F1xx/src/system_stm32f1xx.c ****        /* HSE oscillator clock selected as PREDIV1 clock entry */
 307:CMSIS/Device/STM32F1xx/src/system_stm32f1xx.c ****        SystemCoreClock = (HSE_VALUE / prediv1factor) * pllmull; 
 308:CMSIS/Device/STM32F1xx/src/system_stm32f1xx.c ****  #else
 309:CMSIS/Device/STM32F1xx/src/system_stm32f1xx.c ****         /* HSE selected as PLL clock entry */
 310:CMSIS/Device/STM32F1xx/src/system_stm32f1xx.c ****         if ((RCC->CFGR & RCC_CFGR_PLLXTPRE) != (uint32_t)RESET)
 311:CMSIS/Device/STM32F1xx/src/system_stm32f1xx.c ****         {/* HSE oscillator clock divided by 2 */
 312:CMSIS/Device/STM32F1xx/src/system_stm32f1xx.c ****           SystemCoreClock = (HSE_VALUE >> 1U) * pllmull;
 313:CMSIS/Device/STM32F1xx/src/system_stm32f1xx.c ****         }
 314:CMSIS/Device/STM32F1xx/src/system_stm32f1xx.c ****         else
 315:CMSIS/Device/STM32F1xx/src/system_stm32f1xx.c ****         {
 316:CMSIS/Device/STM32F1xx/src/system_stm32f1xx.c ****           SystemCoreClock = HSE_VALUE * pllmull;
 317:CMSIS/Device/STM32F1xx/src/system_stm32f1xx.c ****         }
 318:CMSIS/Device/STM32F1xx/src/system_stm32f1xx.c ****  #endif
 319:CMSIS/Device/STM32F1xx/src/system_stm32f1xx.c ****       }
 320:CMSIS/Device/STM32F1xx/src/system_stm32f1xx.c **** #else
 321:CMSIS/Device/STM32F1xx/src/system_stm32f1xx.c ****       pllmull = pllmull >> 18U;
 322:CMSIS/Device/STM32F1xx/src/system_stm32f1xx.c ****       
 323:CMSIS/Device/STM32F1xx/src/system_stm32f1xx.c ****       if (pllmull != 0x0DU)
 324:CMSIS/Device/STM32F1xx/src/system_stm32f1xx.c ****       {
 325:CMSIS/Device/STM32F1xx/src/system_stm32f1xx.c ****          pllmull += 2U;
 326:CMSIS/Device/STM32F1xx/src/system_stm32f1xx.c ****       }
 327:CMSIS/Device/STM32F1xx/src/system_stm32f1xx.c ****       else
 328:CMSIS/Device/STM32F1xx/src/system_stm32f1xx.c ****       { /* PLL multiplication factor = PLL input clock * 6.5 */
 329:CMSIS/Device/STM32F1xx/src/system_stm32f1xx.c ****         pllmull = 13U / 2U; 
 330:CMSIS/Device/STM32F1xx/src/system_stm32f1xx.c ****       }
 331:CMSIS/Device/STM32F1xx/src/system_stm32f1xx.c ****             
 332:CMSIS/Device/STM32F1xx/src/system_stm32f1xx.c ****       if (pllsource == 0x00U)
 333:CMSIS/Device/STM32F1xx/src/system_stm32f1xx.c ****       {
 334:CMSIS/Device/STM32F1xx/src/system_stm32f1xx.c ****         /* HSI oscillator clock divided by 2 selected as PLL clock entry */
 335:CMSIS/Device/STM32F1xx/src/system_stm32f1xx.c ****         SystemCoreClock = (HSI_VALUE >> 1U) * pllmull;
 336:CMSIS/Device/STM32F1xx/src/system_stm32f1xx.c ****       }
 337:CMSIS/Device/STM32F1xx/src/system_stm32f1xx.c ****       else
 338:CMSIS/Device/STM32F1xx/src/system_stm32f1xx.c ****       {/* PREDIV1 selected as PLL clock entry */
 339:CMSIS/Device/STM32F1xx/src/system_stm32f1xx.c ****         
 340:CMSIS/Device/STM32F1xx/src/system_stm32f1xx.c ****         /* Get PREDIV1 clock source and division factor */
 341:CMSIS/Device/STM32F1xx/src/system_stm32f1xx.c ****         prediv1source = RCC->CFGR2 & RCC_CFGR2_PREDIV1SRC;
 342:CMSIS/Device/STM32F1xx/src/system_stm32f1xx.c ****         prediv1factor = (RCC->CFGR2 & RCC_CFGR2_PREDIV1) + 1U;
 343:CMSIS/Device/STM32F1xx/src/system_stm32f1xx.c ****         
 344:CMSIS/Device/STM32F1xx/src/system_stm32f1xx.c ****         if (prediv1source == 0U)
 345:CMSIS/Device/STM32F1xx/src/system_stm32f1xx.c ****         { 
 346:CMSIS/Device/STM32F1xx/src/system_stm32f1xx.c ****           /* HSE oscillator clock selected as PREDIV1 clock entry */
 347:CMSIS/Device/STM32F1xx/src/system_stm32f1xx.c ****           SystemCoreClock = (HSE_VALUE / prediv1factor) * pllmull;          
 348:CMSIS/Device/STM32F1xx/src/system_stm32f1xx.c ****         }
 349:CMSIS/Device/STM32F1xx/src/system_stm32f1xx.c ****         else
 350:CMSIS/Device/STM32F1xx/src/system_stm32f1xx.c ****         {/* PLL2 clock selected as PREDIV1 clock entry */
 351:CMSIS/Device/STM32F1xx/src/system_stm32f1xx.c ****           
ARM GAS  /var/folders/7g/gx2z5z456bq_r9kbxlcydkzm0000gn/T//ccLFitMr.s 			page 11


 352:CMSIS/Device/STM32F1xx/src/system_stm32f1xx.c ****           /* Get PREDIV2 division factor and PLL2 multiplication factor */
 353:CMSIS/Device/STM32F1xx/src/system_stm32f1xx.c ****           prediv2factor = ((RCC->CFGR2 & RCC_CFGR2_PREDIV2) >> 4U) + 1U;
 354:CMSIS/Device/STM32F1xx/src/system_stm32f1xx.c ****           pll2mull = ((RCC->CFGR2 & RCC_CFGR2_PLL2MUL) >> 8U) + 2U; 
 355:CMSIS/Device/STM32F1xx/src/system_stm32f1xx.c ****           SystemCoreClock = (((HSE_VALUE / prediv2factor) * pll2mull) / prediv1factor) * pllmull;  
 356:CMSIS/Device/STM32F1xx/src/system_stm32f1xx.c ****         }
 357:CMSIS/Device/STM32F1xx/src/system_stm32f1xx.c ****       }
 358:CMSIS/Device/STM32F1xx/src/system_stm32f1xx.c **** #endif /* STM32F105xC */ 
 359:CMSIS/Device/STM32F1xx/src/system_stm32f1xx.c ****       break;
 216              		.loc 1 359 7
 217 00dc 17E0     		b	.L9
 218              	.L10:
 310:CMSIS/Device/STM32F1xx/src/system_stm32f1xx.c ****         {/* HSE oscillator clock divided by 2 */
 219              		.loc 1 310 17
 220 00de 164B     		ldr	r3, .L13
 221 00e0 5B68     		ldr	r3, [r3, #4]
 310:CMSIS/Device/STM32F1xx/src/system_stm32f1xx.c ****         {/* HSE oscillator clock divided by 2 */
 222              		.loc 1 310 24
 223 00e2 03F40033 		and	r3, r3, #131072
 310:CMSIS/Device/STM32F1xx/src/system_stm32f1xx.c ****         {/* HSE oscillator clock divided by 2 */
 224              		.loc 1 310 12
 225 00e6 002B     		cmp	r3, #0
 226 00e8 06D0     		beq	.L12
 312:CMSIS/Device/STM32F1xx/src/system_stm32f1xx.c ****         }
 227              		.loc 1 312 47
 228 00ea BB68     		ldr	r3, [r7, #8]
 229 00ec 154A     		ldr	r2, .L13+12
 230 00ee 02FB03F3 		mul	r3, r2, r3
 312:CMSIS/Device/STM32F1xx/src/system_stm32f1xx.c ****         }
 231              		.loc 1 312 27
 232 00f2 124A     		ldr	r2, .L13+4
 233 00f4 1360     		str	r3, [r2]
 234              		.loc 1 359 7
 235 00f6 0AE0     		b	.L9
 236              	.L12:
 316:CMSIS/Device/STM32F1xx/src/system_stm32f1xx.c ****         }
 237              		.loc 1 316 39
 238 00f8 BB68     		ldr	r3, [r7, #8]
 239 00fa 114A     		ldr	r2, .L13+8
 240 00fc 02FB03F3 		mul	r3, r2, r3
 316:CMSIS/Device/STM32F1xx/src/system_stm32f1xx.c ****         }
 241              		.loc 1 316 27
 242 0100 0E4A     		ldr	r2, .L13+4
 243 0102 1360     		str	r3, [r2]
 244              		.loc 1 359 7
 245 0104 03E0     		b	.L9
 246              	.L6:
 360:CMSIS/Device/STM32F1xx/src/system_stm32f1xx.c **** 
 361:CMSIS/Device/STM32F1xx/src/system_stm32f1xx.c ****     default:
 362:CMSIS/Device/STM32F1xx/src/system_stm32f1xx.c ****       SystemCoreClock = HSI_VALUE;
 247              		.loc 1 362 23
 248 0106 0D4B     		ldr	r3, .L13+4
 249 0108 0D4A     		ldr	r2, .L13+8
 250 010a 1A60     		str	r2, [r3]
 363:CMSIS/Device/STM32F1xx/src/system_stm32f1xx.c ****       break;
 251              		.loc 1 363 7
 252 010c 00BF     		nop
 253              	.L9:
ARM GAS  /var/folders/7g/gx2z5z456bq_r9kbxlcydkzm0000gn/T//ccLFitMr.s 			page 12


 364:CMSIS/Device/STM32F1xx/src/system_stm32f1xx.c ****   }
 365:CMSIS/Device/STM32F1xx/src/system_stm32f1xx.c ****   
 366:CMSIS/Device/STM32F1xx/src/system_stm32f1xx.c ****   /* Compute HCLK clock frequency ----------------*/
 367:CMSIS/Device/STM32F1xx/src/system_stm32f1xx.c ****   /* Get HCLK prescaler */
 368:CMSIS/Device/STM32F1xx/src/system_stm32f1xx.c ****   tmp = AHBPrescTable[((RCC->CFGR & RCC_CFGR_HPRE) >> 4U)];
 254              		.loc 1 368 28
 255 010e 0A4B     		ldr	r3, .L13
 256 0110 5B68     		ldr	r3, [r3, #4]
 257              		.loc 1 368 52
 258 0112 1B09     		lsrs	r3, r3, #4
 259 0114 03F00F03 		and	r3, r3, #15
 260              		.loc 1 368 22
 261 0118 0B4A     		ldr	r2, .L13+16
 262 011a D35C     		ldrb	r3, [r2, r3]	@ zero_extendqisi2
 263              		.loc 1 368 7
 264 011c FB60     		str	r3, [r7, #12]
 369:CMSIS/Device/STM32F1xx/src/system_stm32f1xx.c ****   /* HCLK clock frequency */
 370:CMSIS/Device/STM32F1xx/src/system_stm32f1xx.c ****   SystemCoreClock >>= tmp;  
 265              		.loc 1 370 19
 266 011e 074B     		ldr	r3, .L13+4
 267 0120 1A68     		ldr	r2, [r3]
 268 0122 FB68     		ldr	r3, [r7, #12]
 269 0124 22FA03F3 		lsr	r3, r2, r3
 270 0128 044A     		ldr	r2, .L13+4
 271 012a 1360     		str	r3, [r2]
 371:CMSIS/Device/STM32F1xx/src/system_stm32f1xx.c **** }
 272              		.loc 1 371 1
 273 012c 00BF     		nop
 274 012e 1437     		adds	r7, r7, #20
 275              		.cfi_def_cfa_offset 4
 276 0130 BD46     		mov	sp, r7
 277              		.cfi_def_cfa_register 13
 278              		@ sp needed
 279 0132 80BC     		pop	{r7}
 280              		.cfi_restore 7
 281              		.cfi_def_cfa_offset 0
 282 0134 7047     		bx	lr
 283              	.L14:
 284 0136 00BF     		.align	2
 285              	.L13:
 286 0138 00100240 		.word	1073876992
 287 013c 00000000 		.word	SystemCoreClock
 288 0140 00127A00 		.word	8000000
 289 0144 00093D00 		.word	4000000
 290 0148 00000000 		.word	AHBPrescTable
 291              		.cfi_endproc
 292              	.LFE64:
 293              		.size	SystemCoreClockUpdate, .-SystemCoreClockUpdate
 294              	.Letext0:
 295              		.file 2 "/Applications/ArmGNUToolchain/13.2.Rel1/arm-none-eabi/arm-none-eabi/include/machine/_defa
 296              		.file 3 "/Applications/ArmGNUToolchain/13.2.Rel1/arm-none-eabi/arm-none-eabi/include/sys/_stdint.h
 297              		.file 4 "./CMSIS/include/core_cm3.h"
 298              		.file 5 "./CMSIS/Device/STM32F1xx/include/system_stm32f1xx.h"
 299              		.file 6 "./CMSIS/Device/STM32F1xx/include/stm32f103xb.h"
 300              		.file 7 "./CMSIS/Device/STM32F1xx/include/stm32f1xx.h"